target datalayout = "e-m:e-p270:32:32-p271:32:32-p272:64:64-i64:64-i128:128-f80:128-n8:16:32:64-S128"
target triple = "x86_64-pc-linux-gnu"

%struct.dt_database_t = type { i32, ptr, ptr, ptr, ptr, ptr, ptr, ptr, i32 }

@.str.23 = private unnamed_addr constant [9 x i8] c":memory:\00", align 1
@.str.104 = private unnamed_addr constant [13 x i8] c"%Y%m%d%H%M%S\00", align 1
@.str.105 = private unnamed_addr constant [10 x i8] c"%s-snp-%s\00", align 1
@.str.106 = private unnamed_addr constant [10 x i8] c"%s-tmp-%s\00", align 1
@.str.107 = private unnamed_addr constant [5 x i8] c"main\00", align 1
@.str.108 = private unnamed_addr constant [5 x i8] c"data\00", align 1

; Function Attrs: inlinehint nounwind uwtable
define internal i32 @_is_mem_db(ptr noundef %0) #8 {
  %2 = alloca ptr, align 8
  store ptr %0, ptr %2, align 8, !tbaa !6
  %3 = load ptr, ptr %2, align 8, !tbaa !6
  %4 = getelementptr inbounds nuw %struct.dt_database_t, ptr %3, i32 0, i32 1
  %5 = load ptr, ptr %4, align 8, !tbaa !66
  %6 = call i32 @g_strcmp0(ptr noundef %5, ptr noundef @.str.23)
  %7 = icmp ne i32 %6, 0
  br i1 %7, label %8, label %15

8:                                                ; preds = %1
  %9 = load ptr, ptr %2, align 8, !tbaa !6
  %10 = getelementptr inbounds nuw %struct.dt_database_t, ptr %9, i32 0, i32 3
  %11 = load ptr, ptr %10, align 8, !tbaa !67
  %12 = call i32 @g_strcmp0(ptr noundef %11, ptr noundef @.str.23)
  %13 = icmp ne i32 %12, 0
  %14 = xor i1 %13, true
  br label %15

15:                                               ; preds = %8, %1
  %16 = phi i1 [ true, %1 ], [ %14, %8 ]
  %17 = zext i1 %16 to i32
  ret i32 %17
}

; Function Attrs: nounwind uwtable
define i32 @dt_database_snapshot(ptr noundef %0) #0 {
  %2 = alloca i32, align 4
  %3 = alloca ptr, align 8
  %4 = alloca ptr, align 8
  %5 = alloca ptr, align 8
  %6 = alloca ptr, align 8
  %7 = alloca ptr, align 8
  %8 = alloca ptr, align 8
  %9 = alloca ptr, align 8
  %10 = alloca i32, align 4
  %11 = alloca i32, align 4
  %12 = alloca ptr, align 8
  %13 = alloca ptr, align 8
  store ptr %0, ptr %3, align 8, !tbaa !6
  %14 = load ptr, ptr %3, align 8, !tbaa !6
  %15 = call i32 @_is_mem_db(ptr noundef %14)
  %16 = icmp ne i32 %15, 0
  br i1 %16, label %17, label %18

17:                                               ; preds = %1
  store i32 0, ptr %2, align 4
  br label %87

18:                                               ; preds = %1
  call void @llvm.lifetime.start.p0(i64 8, ptr %4) #13
  %19 = call ptr @g_date_time_new_now_local()
  store ptr %19, ptr %4, align 8, !tbaa !83
  call void @llvm.lifetime.start.p0(i64 8, ptr %5) #13
  %20 = load ptr, ptr %4, align 8, !tbaa !83
  %21 = call noalias ptr @g_date_time_format(ptr noundef %20, ptr noundef @.str.104)
  store ptr %21, ptr %5, align 8, !tbaa !18
  %22 = load ptr, ptr %4, align 8, !tbaa !83
  call void @g_date_time_unref(ptr noundef %22)
  call void @llvm.lifetime.start.p0(i64 8, ptr %6) #13
  store ptr @.str.105, ptr %6, align 8, !tbaa !18
  call void @llvm.lifetime.start.p0(i64 8, ptr %7) #13
  store ptr @.str.106, ptr %7, align 8, !tbaa !18
  call void @llvm.lifetime.start.p0(i64 8, ptr %8) #13
  %23 = load ptr, ptr %6, align 8, !tbaa !18
  %24 = load ptr, ptr %3, align 8, !tbaa !6
  %25 = getelementptr inbounds nuw %struct.dt_database_t, ptr %24, i32 0, i32 3
  %26 = load ptr, ptr %25, align 8, !tbaa !67
  %27 = load ptr, ptr %5, align 8, !tbaa !18
  %28 = call noalias ptr (ptr, ...) @g_strdup_printf(ptr noundef %23, ptr noundef %26, ptr noundef %27)
  store ptr %28, ptr %8, align 8, !tbaa !18
  call void @llvm.lifetime.start.p0(i64 8, ptr %9) #13
  %29 = load ptr, ptr %7, align 8, !tbaa !18
  %30 = load ptr, ptr %3, align 8, !tbaa !6
  %31 = getelementptr inbounds nuw %struct.dt_database_t, ptr %30, i32 0, i32 3
  %32 = load ptr, ptr %31, align 8, !tbaa !67
  %33 = load ptr, ptr %5, align 8, !tbaa !18
  %34 = call noalias ptr (ptr, ...) @g_strdup_printf(ptr noundef %29, ptr noundef %32, ptr noundef %33)
  store ptr %34, ptr %9, align 8, !tbaa !18
  call void @llvm.lifetime.start.p0(i64 4, ptr %10) #13
  %35 = load ptr, ptr %3, align 8, !tbaa !6
  %36 = getelementptr inbounds nuw %struct.dt_database_t, ptr %35, i32 0, i32 5
  %37 = load ptr, ptr %36, align 8, !tbaa !11
  %38 = load ptr, ptr %9, align 8, !tbaa !18
  %39 = call i32 @_backup_db(ptr noundef %37, ptr noundef @.str.107, ptr noundef %38, ptr noundef @_print_backup_progress)
  store i32 %39, ptr %10, align 4, !tbaa !21
  %40 = load i32, ptr %10, align 4, !tbaa !21
  %41 = icmp ne i32 %40, 0
  br i1 %41, label %42, label %48

42:                                               ; preds = %18
  %43 = load ptr, ptr %9, align 8, !tbaa !18
  %44 = call i32 @g_unlink(ptr noundef %43)
  %45 = load ptr, ptr %9, align 8, !tbaa !18
  call void @g_free(ptr noundef %45)
  %46 = load ptr, ptr %8, align 8, !tbaa !18
  call void @g_free(ptr noundef %46)
  %47 = load ptr, ptr %5, align 8, !tbaa !18
  call void @g_free(ptr noundef %47)
  store i32 0, ptr %2, align 4
  store i32 1, ptr %11, align 4
  br label %86

48:                                               ; preds = %18
  %49 = load ptr, ptr %9, align 8, !tbaa !18
  %50 = load ptr, ptr %8, align 8, !tbaa !18
  %51 = call i32 @rename(ptr noundef %49, ptr noundef %50) #13
  %52 = load ptr, ptr %9, align 8, !tbaa !18
  call void @g_free(ptr noundef %52)
  %53 = load ptr, ptr %8, align 8, !tbaa !18
  call void @g_free(ptr noundef %53)
  call void @llvm.lifetime.start.p0(i64 8, ptr %12) #13
  %54 = load ptr, ptr %6, align 8, !tbaa !18
  %55 = load ptr, ptr %3, align 8, !tbaa !6
  %56 = getelementptr inbounds nuw %struct.dt_database_t, ptr %55, i32 0, i32 1
  %57 = load ptr, ptr %56, align 8, !tbaa !66
  %58 = load ptr, ptr %5, align 8, !tbaa !18
  %59 = call noalias ptr (ptr, ...) @g_strdup_printf(ptr noundef %54, ptr noundef %57, ptr noundef %58)
  store ptr %59, ptr %12, align 8, !tbaa !18
  call void @llvm.lifetime.start.p0(i64 8, ptr %13) #13
  %60 = load ptr, ptr %7, align 8, !tbaa !18
  %61 = load ptr, ptr %3, align 8, !tbaa !6
  %62 = getelementptr inbounds nuw %struct.dt_database_t, ptr %61, i32 0, i32 1
  %63 = load ptr, ptr %62, align 8, !tbaa !66
  %64 = load ptr, ptr %5, align 8, !tbaa !18
  %65 = call noalias ptr (ptr, ...) @g_strdup_printf(ptr noundef %60, ptr noundef %63, ptr noundef %64)
  store ptr %65, ptr %13, align 8, !tbaa !18
  %66 = load ptr, ptr %5, align 8, !tbaa !18
  call void @g_free(ptr noundef %66)
  %67 = load ptr, ptr %3, align 8, !tbaa !6
  %68 = getelementptr inbounds nuw %struct.dt_database_t, ptr %67, i32 0, i32 5
  %69 = load ptr, ptr %68, align 8, !tbaa !11
  %70 = load ptr, ptr %13, align 8, !tbaa !18
  %71 = call i32 @_backup_db(ptr noundef %69, ptr noundef @.str.108, ptr noundef %70, ptr noundef @_print_backup_progress)
  store i32 %71, ptr %10, align 4, !tbaa !21
  %72 = load i32, ptr %10, align 4, !tbaa !21
  %73 = icmp ne i32 %72, 0
  br i1 %73, label %74, label %79

74:                                               ; preds = %48
  %75 = load ptr, ptr %13, align 8, !tbaa !18
  %76 = call i32 @g_unlink(ptr noundef %75)
  %77 = load ptr, ptr %13, align 8, !tbaa !18
  call void @g_free(ptr noundef %77)
  %78 = load ptr, ptr %12, align 8, !tbaa !18
  call void @g_free(ptr noundef %78)
  store i32 0, ptr %2, align 4
  store i32 1, ptr %11, align 4
  br label %85

79:                                               ; preds = %48
  %80 = load ptr, ptr %13, align 8, !tbaa !18
  %81 = load ptr, ptr %12, align 8, !tbaa !18
  %82 = call i32 @rename(ptr noundef %80, ptr noundef %81) #13
  %83 = load ptr, ptr %13, align 8, !tbaa !18
  call void @g_free(ptr noundef %83)
  %84 = load ptr, ptr %12, align 8, !tbaa !18
  call void @g_free(ptr noundef %84)
  store i32 1, ptr %2, align 4
  store i32 1, ptr %11, align 4
  br label %85

85:                                               ; preds = %79, %74
  call void @llvm.lifetime.end.p0(i64 8, ptr %13) #13
  call void @llvm.lifetime.end.p0(i64 8, ptr %12) #13
  br label %86

86:                                               ; preds = %85, %42
  call void @llvm.lifetime.end.p0(i64 4, ptr %10) #13
  call void @llvm.lifetime.end.p0(i64 8, ptr %9) #13
  call void @llvm.lifetime.end.p0(i64 8, ptr %8) #13
  call void @llvm.lifetime.end.p0(i64 8, ptr %7) #13
  call void @llvm.lifetime.end.p0(i64 8, ptr %6) #13
  call void @llvm.lifetime.end.p0(i64 8, ptr %5) #13
  call void @llvm.lifetime.end.p0(i64 8, ptr %4) #13
  br label %87

87:                                               ; preds = %86, %17
  %88 = load i32, ptr %2, align 4
  ret i32 %88
}