; Function Attrs: nounwind uwtable
define range(i32 0, 2) i32 @dt_database_snapshot(ptr noundef readonly captures(none) %0) local_unnamed_addr #0 {
  %2 = getelementptr inbounds nuw i8, ptr %0, i64 8
  %3 = load ptr, ptr %2, align 8, !tbaa !23
  %4 = tail call i32 @g_strcmp0(ptr noundef %3, ptr noundef nonnull @.str.23) #18
  %.not.i = icmp eq i32 %4, 0
  br i1 %.not.i, label %_is_mem_db.exit.thread, label %_is_mem_db.exit

_is_mem_db.exit:                                  ; preds = %1
  %5 = getelementptr inbounds nuw i8, ptr %0, i64 24
  %6 = load ptr, ptr %5, align 8, !tbaa !24
  %7 = tail call i32 @g_strcmp0(ptr noundef %6, ptr noundef nonnull @.str.23) #18
  %.not2.i.not = icmp eq i32 %7, 0
  br i1 %.not2.i.not, label %_is_mem_db.exit.thread, label %8

8:                                                ; preds = %_is_mem_db.exit
  %9 = tail call ptr @g_date_time_new_now_local() #18
  %10 = tail call noalias ptr @g_date_time_format(ptr noundef %9, ptr noundef nonnull @.str.104) #18
  tail call void @g_date_time_unref(ptr noundef %9) #18
  %11 = load ptr, ptr %5, align 8, !tbaa !24
  %12 = tail call noalias ptr (ptr, ...) @g_strdup_printf(ptr noundef nonnull @.str.105, ptr noundef %11, ptr noundef %10) #18
  %13 = load ptr, ptr %5, align 8, !tbaa !24
  %14 = tail call noalias ptr (ptr, ...) @g_strdup_printf(ptr noundef nonnull @.str.106, ptr noundef %13, ptr noundef %10) #18
  %15 = getelementptr inbounds nuw i8, ptr %0, i64 40
  %16 = load ptr, ptr %15, align 8, !tbaa !6
  %17 = tail call fastcc i32 @_backup_db(ptr noundef %16, ptr noundef nonnull @.str.107, ptr noundef %14)
  %.not37 = icmp eq i32 %17, 0
  br i1 %.not37, label %20, label %18

18:                                               ; preds = %8
  %19 = tail call i32 @g_unlink(ptr noundef %14) #18
  tail call void @g_free(ptr noundef %14) #18
  br label %_is_mem_db.exit.thread.sink.split

20:                                               ; preds = %8
  %21 = tail call i32 @rename(ptr noundef %14, ptr noundef %12) #18
  tail call void @g_free(ptr noundef %14) #18
  tail call void @g_free(ptr noundef %12) #18
  %22 = load ptr, ptr %2, align 8, !tbaa !23
  %23 = tail call noalias ptr (ptr, ...) @g_strdup_printf(ptr noundef nonnull @.str.105, ptr noundef %22, ptr noundef %10) #18
  %24 = load ptr, ptr %2, align 8, !tbaa !23
  %25 = tail call noalias ptr (ptr, ...) @g_strdup_printf(ptr noundef nonnull @.str.106, ptr noundef %24, ptr noundef %10) #18
  tail call void @g_free(ptr noundef %10) #18
  %26 = load ptr, ptr %15, align 8, !tbaa !6
  %27 = tail call fastcc i32 @_backup_db(ptr noundef %26, ptr noundef nonnull @.str.108, ptr noundef %25)
  %.not38 = icmp eq i32 %27, 0
  br i1 %.not38, label %30, label %28

28:                                               ; preds = %20
  %29 = tail call i32 @g_unlink(ptr noundef %25) #18
  br label %_is_mem_db.exit.thread.sink.split

30:                                               ; preds = %20
  %31 = tail call i32 @rename(ptr noundef %25, ptr noundef %23) #18
  br label %_is_mem_db.exit.thread.sink.split

_is_mem_db.exit.thread.sink.split:                ; preds = %28, %30, %18
  %.sink40 = phi ptr [ %12, %18 ], [ %25, %30 ], [ %25, %28 ]
  %.sink = phi ptr [ %10, %18 ], [ %23, %30 ], [ %23, %28 ]
  %.0.ph = phi i32 [ 0, %18 ], [ 1, %30 ], [ 0, %28 ]
  tail call void @g_free(ptr noundef %.sink40) #18
  tail call void @g_free(ptr noundef %.sink) #18
  br label %_is_mem_db.exit.thread

_is_mem_db.exit.thread:                           ; preds = %_is_mem_db.exit.thread.sink.split, %1, %_is_mem_db.exit
  %.0 = phi i32 [ 0, %_is_mem_db.exit ], [ 0, %1 ], [ %.0.ph, %_is_mem_db.exit.thread.sink.split ]
  ret i32 %.0
}